target datalayout = "e-m:e-p270:32:32-p271:32:32-p272:64:64-i64:64-i128:128-f80:128-n8:16:32:64-S128"
target triple = "x86_64-pc-linux-gnu"

%struct.PlatformTarget = type { ptr, i32, ptr, ptr, i32, i32, i32, i32, i32, i32, i32, [7 x %struct.AlignData], [7 x %struct.AlignData], [7 x %struct.AlignData], i32, i16, %union.anon.88, i8, i8, i8, i8, i8, i8, i8, i8, i8, i8, %struct.AlignData, i32, i32, i32, i32, i32, i32, i32, i32, i32, i32, i32, i32, i32, i32, i32, i32, ptr }
%union.anon.88 = type { %struct.anon.90 }
%struct.anon.90 = type { %struct.X86Features, i32, i32 }
%struct.X86Features = type { [2 x i64], ptr }
%struct.AlignData = type { i32, i32 }
%struct.Regs = type { i32, i32 }
%struct.VHeader_ = type { i32, i32, [0 x i8] }
%struct.FunctionPrototype_ = type { i16, i16, ptr, ptr, ptr, ptr, ptr, ptr, ptr, ptr, ptr, ptr, ptr }

@platform_target = external global %struct.PlatformTarget, align 8
@.str = private unnamed_addr constant [36 x i8] c"FATAL ERROR %s -> in %s @ in %s:%d \00", align 1
@.str.1 = private unnamed_addr constant [22 x i8] c"Should be unreachable\00", align 1
@__func__.c_abi_func_create_x86 = private unnamed_addr constant [22 x i8] c"c_abi_func_create_x86\00", align 1
@.str.2 = private unnamed_addr constant [114 x i8] c"generated/home/dtcxzyw/WorkSpace/Projects/compilers/llvm-opt-benchmark/bench/c3c/c3c/src/compiler/abi/c_abi_x86.c\00", align 1

; Function Attrs: nounwind uwtable
define internal ptr @x86_create_params(i32 noundef %0, ptr noundef %1, ptr noundef %2) #0 {
  %4 = alloca i32, align 4
  %5 = alloca ptr, align 8
  %6 = alloca ptr, align 8
  %7 = alloca ptr, align 8
  %8 = alloca i32, align 4
  %9 = alloca ptr, align 8
  %10 = alloca ptr, align 8
  %11 = alloca i32, align 4
  %12 = alloca ptr, align 8
  %13 = alloca i32, align 4
  store i32 %0, ptr %8, align 4
  store ptr %1, ptr %9, align 8
  store ptr %2, ptr %10, align 8
  %14 = load ptr, ptr %9, align 8
  store ptr %14, ptr %5, align 8
  %15 = load ptr, ptr %5, align 8
  %16 = icmp ne ptr %15, null
  br i1 %16, label %18, label %17

17:                                               ; preds = %3
  store i32 0, ptr %4, align 4
  br label %23

18:                                               ; preds = %3
  %19 = load ptr, ptr %5, align 8
  store ptr %19, ptr %6, align 8
  %20 = load ptr, ptr %6, align 8
  %21 = getelementptr inbounds %struct.VHeader_, ptr %20, i64 -1
  %22 = load i32, ptr %21, align 4
  store i32 %22, ptr %4, align 4
  br label %23

23:                                               ; preds = %18, %17
  %24 = load i32, ptr %4, align 4
  store i32 %24, ptr %11, align 4
  %25 = load i32, ptr %11, align 4
  %26 = icmp ne i32 %25, 0
  br i1 %26, label %28, label %27

27:                                               ; preds = %23
  store ptr null, ptr %7, align 8
  br label %55

28:                                               ; preds = %23
  %29 = load i32, ptr %11, align 4
  %30 = zext i32 %29 to i64
  %31 = mul i64 32, %30
  %32 = call ptr @calloc_arena(i64 noundef %31)
  store ptr %32, ptr %12, align 8
  store i32 0, ptr %13, align 4
  br label %33

33:                                               ; preds = %50, %28
  %34 = load i32, ptr %13, align 4
  %35 = load i32, ptr %11, align 4
  %36 = icmp ult i32 %34, %35
  br i1 %36, label %37, label %53

37:                                               ; preds = %33
  %38 = load i32, ptr %8, align 4
  %39 = load ptr, ptr %10, align 8
  %40 = load ptr, ptr %9, align 8
  %41 = load i32, ptr %13, align 4
  %42 = zext i32 %41 to i64
  %43 = getelementptr inbounds ptr, ptr %40, i64 %42
  %44 = load ptr, ptr %43, align 8
  %45 = call ptr @x86_classify_argument(i32 noundef %38, ptr noundef %39, ptr noundef %44)
  %46 = load ptr, ptr %12, align 8
  %47 = load i32, ptr %13, align 4
  %48 = zext i32 %47 to i64
  %49 = getelementptr inbounds ptr, ptr %46, i64 %48
  store ptr %45, ptr %49, align 8
  br label %50

50:                                               ; preds = %37
  %51 = load i32, ptr %13, align 4
  %52 = add i32 %51, 1
  store i32 %52, ptr %13, align 4
  br label %33, !llvm.loop !9

53:                                               ; preds = %33
  %54 = load ptr, ptr %12, align 8
  store ptr %54, ptr %7, align 8
  br label %55

55:                                               ; preds = %53, %27
  %56 = load ptr, ptr %7, align 8
  ret ptr %56
}

; Function Attrs: nounwind uwtable
define dso_local void @c_abi_func_create_x86(ptr noundef %0) #0 {
  %2 = alloca ptr, align 8
  %3 = alloca %struct.Regs, align 4
  store ptr %0, ptr %2, align 8
  call void @llvm.memset.p0.i64(ptr align 4 %3, i8 0, i64 8, i1 false)
  %4 = load ptr, ptr %2, align 8
  %5 = load i16, ptr %4, align 8
  %6 = and i16 %5, 15
  %7 = zext i16 %6 to i32
  switch i32 %7, label %14 [
    i32 0, label %8
  ]

8:                                                ; preds = %1
  %9 = load i16, ptr getelementptr inbounds (%struct.PlatformTarget, ptr @platform_target, i32 0, i32 15), align 8
  %10 = lshr i16 %9, 5
  %11 = and i16 %10, 255
  %12 = zext i16 %11 to i32
  %13 = getelementptr inbounds %struct.Regs, ptr %3, i32 0, i32 0
  store i32 %12, ptr %13, align 4
  br label %17

14:                                               ; preds = %1
  br label %15

15:                                               ; preds = %14
  call void (ptr, ...) @error_exit(ptr noundef @.str, ptr noundef @.str.1, ptr noundef @__func__.c_abi_func_create_x86, ptr noundef @.str.2, i32 noundef 510) #4
  unreachable

16:                                               ; No predecessors!
  br label %17

17:                                               ; preds = %16, %8
  %18 = load i8, ptr getelementptr inbounds (%struct.PlatformTarget, ptr @platform_target, i32 0, i32 16), align 8
  %19 = lshr i8 %18, 2
  %20 = and i8 %19, 1
  %21 = trunc i8 %20 to i1
  br i1 %21, label %22, label %25

22:                                               ; preds = %17
  %23 = getelementptr inbounds %struct.Regs, ptr %3, i32 0, i32 1
  store i32 0, ptr %23, align 4
  %24 = getelementptr inbounds %struct.Regs, ptr %3, i32 0, i32 0
  store i32 3, ptr %24, align 4
  br label %25

25:                                               ; preds = %22, %17
  %26 = load ptr, ptr %2, align 8
  %27 = load i16, ptr %26, align 8
  %28 = and i16 %27, 15
  %29 = zext i16 %28 to i32
  %30 = load ptr, ptr %2, align 8
  %31 = getelementptr inbounds %struct.FunctionPrototype_, ptr %30, i32 0, i32 7
  %32 = load ptr, ptr %31, align 8
  %33 = call ptr @x86_classify_return(i32 noundef %29, ptr noundef %3, ptr noundef %32)
  %34 = load ptr, ptr %2, align 8
  %35 = getelementptr inbounds %struct.FunctionPrototype_, ptr %34, i32 0, i32 8
  store ptr %33, ptr %35, align 8
  %36 = load ptr, ptr %2, align 8
  %37 = load i16, ptr %36, align 8
  %38 = lshr i16 %37, 7
  %39 = and i16 %38, 1
  %40 = trunc i16 %39 to i1
  br i1 %40, label %41, label %54

41:                                               ; preds = %25
  %42 = load ptr, ptr %2, align 8
  %43 = load i16, ptr %42, align 8
  %44 = and i16 %43, 15
  %45 = zext i16 %44 to i32
  %46 = load ptr, ptr %2, align 8
  %47 = getelementptr inbounds %struct.FunctionPrototype_, ptr %46, i32 0, i32 6
  %48 = load ptr, ptr %47, align 8
  %49 = call ptr @type_lowering(ptr noundef %48)
  %50 = call ptr @type_get_ptr(ptr noundef %49)
  %51 = call ptr @x86_classify_argument(i32 noundef %45, ptr noundef %3, ptr noundef %50)
  %52 = load ptr, ptr %2, align 8
  %53 = getelementptr inbounds %struct.FunctionPrototype_, ptr %52, i32 0, i32 9
  store ptr %51, ptr %53, align 8
  br label %54

54:                                               ; preds = %41, %25
  %55 = load ptr, ptr %2, align 8
  %56 = load i16, ptr %55, align 8
  %57 = and i16 %56, 15
  %58 = zext i16 %57 to i32
  %59 = load ptr, ptr %2, align 8
  %60 = getelementptr inbounds %struct.FunctionPrototype_, ptr %59, i32 0, i32 3
  %61 = load ptr, ptr %60, align 8
  %62 = call ptr @x86_create_params(i32 noundef %58, ptr noundef %61, ptr noundef %3)
  %63 = load ptr, ptr %2, align 8
  %64 = getelementptr inbounds %struct.FunctionPrototype_, ptr %63, i32 0, i32 10
  store ptr %62, ptr %64, align 8
  %65 = load ptr, ptr %2, align 8
  %66 = load i16, ptr %65, align 8
  %67 = and i16 %66, 15
  %68 = zext i16 %67 to i32
  %69 = load ptr, ptr %2, align 8
  %70 = getelementptr inbounds %struct.FunctionPrototype_, ptr %69, i32 0, i32 5
  %71 = load ptr, ptr %70, align 8
  %72 = call ptr @x86_create_params(i32 noundef %68, ptr noundef %71, ptr noundef %3)
  %73 = load ptr, ptr %2, align 8
  %74 = getelementptr inbounds %struct.FunctionPrototype_, ptr %73, i32 0, i32 11
  store ptr %72, ptr %74, align 8
  ret void
}