; Function Attrs: nounwind uwtable
define dso_local void @c_abi_func_create_x86(ptr nocapture noundef %0) local_unnamed_addr #0 {
  %2 = alloca %struct.Regs, align 8
  store i64 0, ptr %2, align 8
  %3 = load i16, ptr %0, align 8
  %4 = and i16 %3, 15
  %cond = icmp eq i16 %4, 0
  br i1 %cond, label %5, label %12

5:                                                ; preds = %1
  %6 = load i16, ptr getelementptr inbounds (%struct.PlatformTarget, ptr @platform_target, i64 0, i32 15), align 8
  %7 = lshr i16 %6, 5
  %8 = and i16 %7, 255
  %9 = zext nneg i16 %8 to i32
  store i32 %9, ptr %2, align 8
  %10 = load i8, ptr getelementptr inbounds (%struct.PlatformTarget, ptr @platform_target, i64 0, i32 16), align 8
  %11 = and i8 %10, 4
  %.not = icmp eq i8 %11, 0
  br i1 %.not, label %15, label %13

12:                                               ; preds = %1
  tail call void (ptr, ...) @error_exit(ptr noundef nonnull @.str, ptr noundef nonnull @.str.1, ptr noundef nonnull @__func__.c_abi_func_create_x86, ptr noundef nonnull @.str.2, i32 noundef 510) #5
  unreachable

13:                                               ; preds = %5
  %14 = getelementptr inbounds i8, ptr %2, i64 4
  store i32 0, ptr %14, align 4
  store i32 3, ptr %2, align 8
  br label %15

15:                                               ; preds = %13, %5
  %16 = getelementptr inbounds i8, ptr %0, i64 48
  %17 = load ptr, ptr %16, align 8
  %18 = call ptr @x86_classify_return(i32 poison, ptr noundef nonnull %2, ptr noundef %17)
  %19 = getelementptr inbounds i8, ptr %0, i64 56
  store ptr %18, ptr %19, align 8
  %20 = load i16, ptr %0, align 8
  %21 = and i16 %20, 128
  %.not14 = icmp eq i16 %21, 0
  br i1 %.not14, label %29, label %22

22:                                               ; preds = %15
  %23 = getelementptr inbounds i8, ptr %0, i64 40
  %24 = load ptr, ptr %23, align 8
  %25 = tail call fastcc ptr @type_lowering(ptr noundef %24)
  %26 = tail call ptr @type_get_ptr(ptr noundef %25) #4
  %27 = call fastcc ptr @x86_classify_argument(ptr noundef nonnull %2, ptr noundef %26)
  %28 = getelementptr inbounds i8, ptr %0, i64 64
  store ptr %27, ptr %28, align 8
  br label %29

29:                                               ; preds = %22, %15
  %30 = getelementptr inbounds i8, ptr %0, i64 16
  %31 = load ptr, ptr %30, align 8
  %.not.i = icmp eq ptr %31, null
  br i1 %.not.i, label %x86_create_params.exit, label %32

32:                                               ; preds = %29
  %33 = getelementptr inbounds i8, ptr %31, i64 -8
  %34 = load i32, ptr %33, align 4
  %.not20.i = icmp eq i32 %34, 0
  br i1 %.not20.i, label %x86_create_params.exit, label %35

35:                                               ; preds = %32
  %36 = zext i32 %34 to i64
  %37 = shl nuw nsw i64 %36, 5
  %38 = tail call ptr @calloc_arena(i64 noundef %37) #4
  br label %39

39:                                               ; preds = %39, %35
  %indvars.iv.i = phi i64 [ 0, %35 ], [ %indvars.iv.next.i, %39 ]
  %40 = getelementptr inbounds ptr, ptr %31, i64 %indvars.iv.i
  %41 = load ptr, ptr %40, align 8
  %42 = call fastcc ptr @x86_classify_argument(ptr noundef nonnull %2, ptr noundef %41)
  %43 = getelementptr inbounds ptr, ptr %38, i64 %indvars.iv.i
  store ptr %42, ptr %43, align 8
  %indvars.iv.next.i = add nuw nsw i64 %indvars.iv.i, 1
  %exitcond.not.i = icmp eq i64 %indvars.iv.next.i, %36
  br i1 %exitcond.not.i, label %x86_create_params.exit, label %39, !llvm.loop !10

x86_create_params.exit:                           ; preds = %39, %29, %32
  %.018.i = phi ptr [ null, %29 ], [ null, %32 ], [ %38, %39 ]
  %44 = getelementptr inbounds i8, ptr %0, i64 72
  store ptr %.018.i, ptr %44, align 8
  %45 = getelementptr inbounds i8, ptr %0, i64 32
  %46 = load ptr, ptr %45, align 8
  %.not.i15 = icmp eq ptr %46, null
  br i1 %.not.i15, label %x86_create_params.exit21, label %47

47:                                               ; preds = %x86_create_params.exit
  %48 = getelementptr inbounds i8, ptr %46, i64 -8
  %49 = load i32, ptr %48, align 4
  %.not20.i16 = icmp eq i32 %49, 0
  br i1 %.not20.i16, label %x86_create_params.exit21, label %50

50:                                               ; preds = %47
  %51 = zext i32 %49 to i64
  %52 = shl nuw nsw i64 %51, 5
  %53 = tail call ptr @calloc_arena(i64 noundef %52) #4
  br label %54

54:                                               ; preds = %54, %50
  %indvars.iv.i17 = phi i64 [ 0, %50 ], [ %indvars.iv.next.i18, %54 ]
  %55 = getelementptr inbounds ptr, ptr %46, i64 %indvars.iv.i17
  %56 = load ptr, ptr %55, align 8
  %57 = call fastcc ptr @x86_classify_argument(ptr noundef nonnull %2, ptr noundef %56)
  %58 = getelementptr inbounds ptr, ptr %53, i64 %indvars.iv.i17
  store ptr %57, ptr %58, align 8
  %indvars.iv.next.i18 = add nuw nsw i64 %indvars.iv.i17, 1
  %exitcond.not.i19 = icmp eq i64 %indvars.iv.next.i18, %51
  br i1 %exitcond.not.i19, label %x86_create_params.exit21, label %54, !llvm.loop !10

x86_create_params.exit21:                         ; preds = %54, %x86_create_params.exit, %47
  %.018.i20 = phi ptr [ null, %47 ], [ null, %x86_create_params.exit ], [ %53, %54 ]
  %59 = getelementptr inbounds i8, ptr %0, i64 80
  store ptr %.018.i20, ptr %59, align 8
  ret void
}